target datalayout = "e-m:e-p270:32:32-p271:32:32-p272:64:64-i64:64-i128:128-f80:128-n8:16:32:64-S128"
target triple = "x86_64-pc-linux-gnu"

%struct.Fraig_NodeStruct_t_ = type { i32, i32, i32, i32, i32, i32, i32, ptr, ptr, ptr, ptr, ptr, ptr, ptr, ptr, i32, i32, ptr, ptr, ptr, ptr, ptr, ptr, ptr }

; Function Attrs: nounwind uwtable
define i32 @Fraig_CompareSimInfo(ptr noundef %0, ptr noundef %1, i32 noundef %2, i32 noundef %3) #0 {
  %5 = alloca i32, align 4
  %6 = alloca ptr, align 8
  %7 = alloca ptr, align 8
  %8 = alloca i32, align 4
  %9 = alloca i32, align 4
  %10 = alloca i32, align 4
  %11 = alloca i32, align 4
  store ptr %0, ptr %6, align 8, !tbaa !19
  store ptr %1, ptr %7, align 8, !tbaa !19
  store i32 %2, ptr %8, align 4, !tbaa !3
  store i32 %3, ptr %9, align 4, !tbaa !3
  call void @llvm.lifetime.start.p0(i64 4, ptr %10) #7
  %12 = load i32, ptr %9, align 4, !tbaa !3
  %13 = icmp ne i32 %12, 0
  br i1 %13, label %14, label %50

14:                                               ; preds = %4
  %15 = load ptr, ptr %6, align 8, !tbaa !19
  %16 = getelementptr inbounds nuw %struct.Fraig_NodeStruct_t_, ptr %15, i32 0, i32 15
  %17 = load i32, ptr %16, align 8, !tbaa !44
  %18 = load ptr, ptr %7, align 8, !tbaa !19
  %19 = getelementptr inbounds nuw %struct.Fraig_NodeStruct_t_, ptr %18, i32 0, i32 15
  %20 = load i32, ptr %19, align 8, !tbaa !44
  %21 = icmp ne i32 %17, %20
  br i1 %21, label %22, label %23

22:                                               ; preds = %14
  store i32 0, ptr %5, align 4
  store i32 1, ptr %11, align 4
  br label %87

23:                                               ; preds = %14
  store i32 0, ptr %10, align 4, !tbaa !3
  br label %24

24:                                               ; preds = %46, %23
  %25 = load i32, ptr %10, align 4, !tbaa !3
  %26 = load i32, ptr %8, align 4, !tbaa !3
  %27 = icmp slt i32 %25, %26
  br i1 %27, label %28, label %49

28:                                               ; preds = %24
  %29 = load ptr, ptr %6, align 8, !tbaa !19
  %30 = getelementptr inbounds nuw %struct.Fraig_NodeStruct_t_, ptr %29, i32 0, i32 17
  %31 = load ptr, ptr %30, align 8, !tbaa !51
  %32 = load i32, ptr %10, align 4, !tbaa !3
  %33 = sext i32 %32 to i64
  %34 = getelementptr inbounds i32, ptr %31, i64 %33
  %35 = load i32, ptr %34, align 4, !tbaa !3
  %36 = load ptr, ptr %7, align 8, !tbaa !19
  %37 = getelementptr inbounds nuw %struct.Fraig_NodeStruct_t_, ptr %36, i32 0, i32 17
  %38 = load ptr, ptr %37, align 8, !tbaa !51
  %39 = load i32, ptr %10, align 4, !tbaa !3
  %40 = sext i32 %39 to i64
  %41 = getelementptr inbounds i32, ptr %38, i64 %40
  %42 = load i32, ptr %41, align 4, !tbaa !3
  %43 = icmp ne i32 %35, %42
  br i1 %43, label %44, label %45

44:                                               ; preds = %28
  store i32 0, ptr %5, align 4
  store i32 1, ptr %11, align 4
  br label %87

45:                                               ; preds = %28
  br label %46

46:                                               ; preds = %45
  %47 = load i32, ptr %10, align 4, !tbaa !3
  %48 = add nsw i32 %47, 1
  store i32 %48, ptr %10, align 4, !tbaa !3
  br label %24, !llvm.loop !52

49:                                               ; preds = %24
  br label %86

50:                                               ; preds = %4
  %51 = load ptr, ptr %6, align 8, !tbaa !19
  %52 = getelementptr inbounds nuw %struct.Fraig_NodeStruct_t_, ptr %51, i32 0, i32 16
  %53 = load i32, ptr %52, align 4, !tbaa !53
  %54 = load ptr, ptr %7, align 8, !tbaa !19
  %55 = getelementptr inbounds nuw %struct.Fraig_NodeStruct_t_, ptr %54, i32 0, i32 16
  %56 = load i32, ptr %55, align 4, !tbaa !53
  %57 = icmp ne i32 %53, %56
  br i1 %57, label %58, label %59

58:                                               ; preds = %50
  store i32 0, ptr %5, align 4
  store i32 1, ptr %11, align 4
  br label %87

59:                                               ; preds = %50
  store i32 0, ptr %10, align 4, !tbaa !3
  br label %60

60:                                               ; preds = %82, %59
  %61 = load i32, ptr %10, align 4, !tbaa !3
  %62 = load i32, ptr %8, align 4, !tbaa !3
  %63 = icmp slt i32 %61, %62
  br i1 %63, label %64, label %85

64:                                               ; preds = %60
  %65 = load ptr, ptr %6, align 8, !tbaa !19
  %66 = getelementptr inbounds nuw %struct.Fraig_NodeStruct_t_, ptr %65, i32 0, i32 18
  %67 = load ptr, ptr %66, align 8, !tbaa !54
  %68 = load i32, ptr %10, align 4, !tbaa !3
  %69 = sext i32 %68 to i64
  %70 = getelementptr inbounds i32, ptr %67, i64 %69
  %71 = load i32, ptr %70, align 4, !tbaa !3
  %72 = load ptr, ptr %7, align 8, !tbaa !19
  %73 = getelementptr inbounds nuw %struct.Fraig_NodeStruct_t_, ptr %72, i32 0, i32 18
  %74 = load ptr, ptr %73, align 8, !tbaa !54
  %75 = load i32, ptr %10, align 4, !tbaa !3
  %76 = sext i32 %75 to i64
  %77 = getelementptr inbounds i32, ptr %74, i64 %76
  %78 = load i32, ptr %77, align 4, !tbaa !3
  %79 = icmp ne i32 %71, %78
  br i1 %79, label %80, label %81

80:                                               ; preds = %64
  store i32 0, ptr %5, align 4
  store i32 1, ptr %11, align 4
  br label %87

81:                                               ; preds = %64
  br label %82

82:                                               ; preds = %81
  %83 = load i32, ptr %10, align 4, !tbaa !3
  %84 = add nsw i32 %83, 1
  store i32 %84, ptr %10, align 4, !tbaa !3
  br label %60, !llvm.loop !55

85:                                               ; preds = %60
  br label %86

86:                                               ; preds = %85, %49
  store i32 1, ptr %5, align 4
  store i32 1, ptr %11, align 4
  br label %87

87:                                               ; preds = %86, %80, %58, %44, %22
  call void @llvm.lifetime.end.p0(i64 4, ptr %10) #7
  %88 = load i32, ptr %5, align 4
  ret i32 %88
}