; Function Attrs: nofree norecurse nosync nounwind memory(read, inaccessiblemem: none) uwtable
define range(i32 0, 2) i32 @Fraig_CompareSimInfo(ptr noundef readonly captures(none) %0, ptr noundef readonly captures(none) %1, i32 noundef %2, i32 noundef %3) local_unnamed_addr #6 {
  %.not = icmp eq i32 %3, 0
  br i1 %.not, label %21, label %5

5:                                                ; preds = %4
  %6 = getelementptr inbounds nuw i8, ptr %0, i64 96
  %7 = load i32, ptr %6, align 8, !tbaa !38
  %8 = getelementptr inbounds nuw i8, ptr %1, i64 96
  %9 = load i32, ptr %8, align 8, !tbaa !38
  %.not22 = icmp eq i32 %7, %9
  br i1 %.not22, label %.preheader24, label %.loopexit

.preheader24:                                     ; preds = %5
  %10 = icmp sgt i32 %2, 0
  br i1 %10, label %.lr.ph, label %.loopexit

.lr.ph:                                           ; preds = %.preheader24
  %11 = getelementptr inbounds nuw i8, ptr %0, i64 104
  %12 = load ptr, ptr %11, align 8, !tbaa !40
  %13 = getelementptr inbounds nuw i8, ptr %1, i64 104
  %14 = load ptr, ptr %13, align 8, !tbaa !40
  %wide.trip.count = zext nneg i32 %2 to i64
  br label %16

15:                                               ; preds = %16
  %indvars.iv.next = add nuw nsw i64 %indvars.iv, 1
  %exitcond.not = icmp eq i64 %indvars.iv.next, %wide.trip.count
  br i1 %exitcond.not, label %.loopexit, label %16, !llvm.loop !43

16:                                               ; preds = %.lr.ph, %15
  %indvars.iv = phi i64 [ 0, %.lr.ph ], [ %indvars.iv.next, %15 ]
  %17 = getelementptr inbounds nuw i32, ptr %12, i64 %indvars.iv
  %18 = load i32, ptr %17, align 4, !tbaa !41
  %19 = getelementptr inbounds nuw i32, ptr %14, i64 %indvars.iv
  %20 = load i32, ptr %19, align 4, !tbaa !41
  %.not23 = icmp eq i32 %18, %20
  br i1 %.not23, label %15, label %.loopexit

21:                                               ; preds = %4
  %22 = getelementptr inbounds nuw i8, ptr %0, i64 100
  %23 = load i32, ptr %22, align 4, !tbaa !45
  %24 = getelementptr inbounds nuw i8, ptr %1, i64 100
  %25 = load i32, ptr %24, align 4, !tbaa !45
  %.not20 = icmp eq i32 %23, %25
  br i1 %.not20, label %.preheader, label %.loopexit

.preheader:                                       ; preds = %21
  %26 = icmp sgt i32 %2, 0
  br i1 %26, label %.lr.ph31, label %.loopexit

.lr.ph31:                                         ; preds = %.preheader
  %27 = getelementptr inbounds nuw i8, ptr %0, i64 112
  %28 = load ptr, ptr %27, align 8, !tbaa !46
  %29 = getelementptr inbounds nuw i8, ptr %1, i64 112
  %30 = load ptr, ptr %29, align 8, !tbaa !46
  %wide.trip.count41 = zext nneg i32 %2 to i64
  br label %32

31:                                               ; preds = %32
  %indvars.iv.next39 = add nuw nsw i64 %indvars.iv38, 1
  %exitcond42.not = icmp eq i64 %indvars.iv.next39, %wide.trip.count41
  br i1 %exitcond42.not, label %.loopexit, label %32, !llvm.loop !49

32:                                               ; preds = %.lr.ph31, %31
  %indvars.iv38 = phi i64 [ 0, %.lr.ph31 ], [ %indvars.iv.next39, %31 ]
  %33 = getelementptr inbounds nuw i32, ptr %28, i64 %indvars.iv38
  %34 = load i32, ptr %33, align 4, !tbaa !41
  %35 = getelementptr inbounds nuw i32, ptr %30, i64 %indvars.iv38
  %36 = load i32, ptr %35, align 4, !tbaa !41
  %.not21 = icmp eq i32 %34, %36
  br i1 %.not21, label %31, label %.loopexit

.loopexit:                                        ; preds = %16, %15, %32, %31, %.preheader24, %.preheader, %21, %5
  %.019 = phi i32 [ 0, %5 ], [ 0, %21 ], [ 1, %.preheader ], [ 1, %.preheader24 ], [ 0, %32 ], [ 1, %31 ], [ 0, %16 ], [ 1, %15 ]
  ret i32 %.019
}